target datalayout = "e-m:e-p270:32:32-p271:32:32-p272:64:64-i64:64-i128:128-f80:128-n8:16:32:64-S128"
target triple = "x86_64-pc-linux-gnu"

%struct.InputFile = type { ptr, ptr, i32 }
%struct.AVFormatContext = type { ptr, ptr, ptr, ptr, ptr, i32, i32, ptr, i32, ptr, i32, ptr, ptr, i64, i64, i64, i32, i32, i32, i64, i64, ptr, i32, i32, ptr, i32, i32, i32, i32, ptr, i64, i32, i32, %struct.AVIOInterruptCB, i32, i32, i32, i32, i64, i32, i32, i32, i32, i32, i32, i32, i32, i32, i32, i32, i32, i64, i32, i32, i32, i32, i32, ptr, ptr, ptr, ptr, i32, ptr, ptr, ptr, ptr, i32, ptr, ptr, i64, ptr, ptr, ptr, i64 }
%struct.AVIOInterruptCB = type { ptr, ptr }
%struct.AVDictionaryEntry = type { ptr, ptr }
%struct.InputStream = type { ptr, ptr }
%struct.AVProgram = type { i32, i32, i32, ptr, i32, ptr, i32, i32, i32, i32, i64, i64, i64, i32 }

@do_show_program_tags = internal global i32 0, align 4
@selected_streams = internal global ptr null, align 8
@.str.602 = private unnamed_addr constant [11 x i8] c"program_id\00", align 1
@.str.603 = private unnamed_addr constant [12 x i8] c"program_num\00", align 1
@.str.604 = private unnamed_addr constant [11 x i8] c"nb_streams\00", align 1
@.str.605 = private unnamed_addr constant [8 x i8] c"pmt_pid\00", align 1
@.str.606 = private unnamed_addr constant [8 x i8] c"pcr_pid\00", align 1

; Function Attrs: inlinehint nounwind uwtable
define internal i32 @show_tags(ptr noundef %0, ptr noundef %1, i32 noundef %2) #5 {
  %4 = alloca i32, align 4
  %5 = alloca ptr, align 8
  %6 = alloca ptr, align 8
  %7 = alloca i32, align 4
  %8 = alloca ptr, align 8
  %9 = alloca i32, align 4
  %10 = alloca i32, align 4
  store ptr %0, ptr %5, align 8, !tbaa !28
  store ptr %1, ptr %6, align 8, !tbaa !116
  store i32 %2, ptr %7, align 4, !tbaa !11
  call void @llvm.lifetime.start.p0(i64 8, ptr %8) #14
  store ptr null, ptr %8, align 8, !tbaa !161
  call void @llvm.lifetime.start.p0(i64 4, ptr %9) #14
  store i32 0, ptr %9, align 4, !tbaa !11
  %11 = load ptr, ptr %6, align 8, !tbaa !116
  %12 = icmp ne ptr %11, null
  br i1 %12, label %14, label %13

13:                                               ; preds = %3
  store i32 0, ptr %4, align 4
  store i32 1, ptr %10, align 4
  br label %37

14:                                               ; preds = %3
  %15 = load ptr, ptr %5, align 8, !tbaa !28
  %16 = load i32, ptr %7, align 4, !tbaa !11
  call void @avtext_print_section_header(ptr noundef %15, ptr noundef null, i32 noundef %16)
  br label %17

17:                                               ; preds = %33, %14
  %18 = load ptr, ptr %6, align 8, !tbaa !116
  %19 = load ptr, ptr %8, align 8, !tbaa !161
  %20 = call ptr @av_dict_iterate(ptr noundef %18, ptr noundef %19)
  store ptr %20, ptr %8, align 8, !tbaa !161
  %21 = icmp ne ptr %20, null
  br i1 %21, label %22, label %34

22:                                               ; preds = %17
  %23 = load ptr, ptr %5, align 8, !tbaa !28
  %24 = load ptr, ptr %8, align 8, !tbaa !161
  %25 = getelementptr inbounds nuw %struct.AVDictionaryEntry, ptr %24, i32 0, i32 0
  %26 = load ptr, ptr %25, align 8, !tbaa !164
  %27 = load ptr, ptr %8, align 8, !tbaa !161
  %28 = getelementptr inbounds nuw %struct.AVDictionaryEntry, ptr %27, i32 0, i32 1
  %29 = load ptr, ptr %28, align 8, !tbaa !254
  %30 = call i32 @avtext_print_string(ptr noundef %23, ptr noundef %26, ptr noundef %29, i32 noundef 2)
  store i32 %30, ptr %9, align 4, !tbaa !11
  %31 = icmp slt i32 %30, 0
  br i1 %31, label %32, label %33

32:                                               ; preds = %22
  br label %34

33:                                               ; preds = %22
  br label %17, !llvm.loop !255

34:                                               ; preds = %32, %17
  %35 = load ptr, ptr %5, align 8, !tbaa !28
  call void @avtext_print_section_footer(ptr noundef %35)
  %36 = load i32, ptr %9, align 4, !tbaa !11
  store i32 %36, ptr %4, align 4
  store i32 1, ptr %10, align 4
  br label %37

37:                                               ; preds = %34, %13
  call void @llvm.lifetime.end.p0(i64 4, ptr %9) #14
  call void @llvm.lifetime.end.p0(i64 8, ptr %8) #14
  %38 = load i32, ptr %4, align 4
  ret i32 %38
}

; Function Attrs: nounwind uwtable
define internal i32 @show_program(ptr noundef %0, ptr noundef %1, ptr noundef %2) #0 {
  %4 = alloca ptr, align 8
  %5 = alloca ptr, align 8
  %6 = alloca ptr, align 8
  %7 = alloca ptr, align 8
  %8 = alloca i32, align 4
  %9 = alloca i32, align 4
  store ptr %0, ptr %4, align 8, !tbaa !28
  store ptr %1, ptr %5, align 8, !tbaa !158
  store ptr %2, ptr %6, align 8, !tbaa !189
  call void @llvm.lifetime.start.p0(i64 8, ptr %7) #14
  %10 = load ptr, ptr %5, align 8, !tbaa !158
  %11 = getelementptr inbounds nuw %struct.InputFile, ptr %10, i32 0, i32 0
  %12 = load ptr, ptr %11, align 8, !tbaa !83
  store ptr %12, ptr %7, align 8, !tbaa !160
  call void @llvm.lifetime.start.p0(i64 4, ptr %8) #14
  call void @llvm.lifetime.start.p0(i64 4, ptr %9) #14
  store i32 0, ptr %9, align 4, !tbaa !11
  %13 = load ptr, ptr %4, align 8, !tbaa !28
  call void @avtext_print_section_header(ptr noundef %13, ptr noundef null, i32 noundef 34)
  %14 = load ptr, ptr %4, align 8, !tbaa !28
  %15 = load ptr, ptr %6, align 8, !tbaa !189
  %16 = getelementptr inbounds nuw %struct.AVProgram, ptr %15, i32 0, i32 0
  %17 = load i32, ptr %16, align 8, !tbaa !542
  %18 = sext i32 %17 to i64
  call void @avtext_print_integer(ptr noundef %14, ptr noundef @.str.602, i64 noundef %18, i32 noundef 0)
  %19 = load ptr, ptr %4, align 8, !tbaa !28
  %20 = load ptr, ptr %6, align 8, !tbaa !189
  %21 = getelementptr inbounds nuw %struct.AVProgram, ptr %20, i32 0, i32 6
  %22 = load i32, ptr %21, align 8, !tbaa !544
  %23 = sext i32 %22 to i64
  call void @avtext_print_integer(ptr noundef %19, ptr noundef @.str.603, i64 noundef %23, i32 noundef 0)
  %24 = load ptr, ptr %4, align 8, !tbaa !28
  %25 = load ptr, ptr %6, align 8, !tbaa !189
  %26 = getelementptr inbounds nuw %struct.AVProgram, ptr %25, i32 0, i32 4
  %27 = load i32, ptr %26, align 8, !tbaa !545
  %28 = zext i32 %27 to i64
  call void @avtext_print_integer(ptr noundef %24, ptr noundef @.str.604, i64 noundef %28, i32 noundef 0)
  %29 = load ptr, ptr %4, align 8, !tbaa !28
  %30 = load ptr, ptr %6, align 8, !tbaa !189
  %31 = getelementptr inbounds nuw %struct.AVProgram, ptr %30, i32 0, i32 7
  %32 = load i32, ptr %31, align 4, !tbaa !546
  %33 = sext i32 %32 to i64
  call void @avtext_print_integer(ptr noundef %29, ptr noundef @.str.605, i64 noundef %33, i32 noundef 0)
  %34 = load ptr, ptr %4, align 8, !tbaa !28
  %35 = load ptr, ptr %6, align 8, !tbaa !189
  %36 = getelementptr inbounds nuw %struct.AVProgram, ptr %35, i32 0, i32 8
  %37 = load i32, ptr %36, align 8, !tbaa !547
  %38 = sext i32 %37 to i64
  call void @avtext_print_integer(ptr noundef %34, ptr noundef @.str.606, i64 noundef %38, i32 noundef 0)
  %39 = load i32, ptr @do_show_program_tags, align 4, !tbaa !11
  %40 = icmp ne i32 %39, 0
  br i1 %40, label %41, label %47

41:                                               ; preds = %3
  %42 = load ptr, ptr %4, align 8, !tbaa !28
  %43 = load ptr, ptr %6, align 8, !tbaa !189
  %44 = getelementptr inbounds nuw %struct.AVProgram, ptr %43, i32 0, i32 5
  %45 = load ptr, ptr %44, align 8, !tbaa !548
  %46 = call i32 @show_tags(ptr noundef %42, ptr noundef %45, i32 noundef 37)
  store i32 %46, ptr %9, align 4, !tbaa !11
  br label %47

47:                                               ; preds = %41, %3
  %48 = load i32, ptr %9, align 4, !tbaa !11
  %49 = icmp slt i32 %48, 0
  br i1 %49, label %50, label %51

50:                                               ; preds = %47
  br label %105

51:                                               ; preds = %47
  %52 = load ptr, ptr %4, align 8, !tbaa !28
  call void @avtext_print_section_header(ptr noundef %52, ptr noundef null, i32 noundef 35)
  store i32 0, ptr %8, align 4, !tbaa !11
  br label %53

53:                                               ; preds = %100, %51
  %54 = load i32, ptr %8, align 4, !tbaa !11
  %55 = load ptr, ptr %6, align 8, !tbaa !189
  %56 = getelementptr inbounds nuw %struct.AVProgram, ptr %55, i32 0, i32 4
  %57 = load i32, ptr %56, align 8, !tbaa !545
  %58 = icmp ult i32 %54, %57
  br i1 %58, label %59, label %103

59:                                               ; preds = %53
  %60 = load ptr, ptr @selected_streams, align 8, !tbaa !65
  %61 = load ptr, ptr %6, align 8, !tbaa !189
  %62 = getelementptr inbounds nuw %struct.AVProgram, ptr %61, i32 0, i32 3
  %63 = load ptr, ptr %62, align 8, !tbaa !549
  %64 = load i32, ptr %8, align 4, !tbaa !11
  %65 = sext i32 %64 to i64
  %66 = getelementptr inbounds i32, ptr %63, i64 %65
  %67 = load i32, ptr %66, align 4, !tbaa !11
  %68 = zext i32 %67 to i64
  %69 = getelementptr inbounds nuw i32, ptr %60, i64 %68
  %70 = load i32, ptr %69, align 4, !tbaa !11
  %71 = icmp ne i32 %70, 0
  br i1 %71, label %72, label %99

72:                                               ; preds = %59
  %73 = load ptr, ptr %4, align 8, !tbaa !28
  %74 = load ptr, ptr %7, align 8, !tbaa !160
  %75 = load ptr, ptr %6, align 8, !tbaa !189
  %76 = getelementptr inbounds nuw %struct.AVProgram, ptr %75, i32 0, i32 3
  %77 = load ptr, ptr %76, align 8, !tbaa !549
  %78 = load i32, ptr %8, align 4, !tbaa !11
  %79 = sext i32 %78 to i64
  %80 = getelementptr inbounds i32, ptr %77, i64 %79
  %81 = load i32, ptr %80, align 4, !tbaa !11
  %82 = load ptr, ptr %5, align 8, !tbaa !158
  %83 = getelementptr inbounds nuw %struct.InputFile, ptr %82, i32 0, i32 1
  %84 = load ptr, ptr %83, align 8, !tbaa !170
  %85 = load ptr, ptr %6, align 8, !tbaa !189
  %86 = getelementptr inbounds nuw %struct.AVProgram, ptr %85, i32 0, i32 3
  %87 = load ptr, ptr %86, align 8, !tbaa !549
  %88 = load i32, ptr %8, align 4, !tbaa !11
  %89 = sext i32 %88 to i64
  %90 = getelementptr inbounds i32, ptr %87, i64 %89
  %91 = load i32, ptr %90, align 4, !tbaa !11
  %92 = zext i32 %91 to i64
  %93 = getelementptr inbounds nuw %struct.InputStream, ptr %84, i64 %92
  %94 = call i32 @show_stream(ptr noundef %73, ptr noundef %74, i32 noundef %81, ptr noundef %93, i32 noundef 1)
  store i32 %94, ptr %9, align 4, !tbaa !11
  %95 = load i32, ptr %9, align 4, !tbaa !11
  %96 = icmp slt i32 %95, 0
  br i1 %96, label %97, label %98

97:                                               ; preds = %72
  br label %103

98:                                               ; preds = %72
  br label %99

99:                                               ; preds = %98, %59
  br label %100

100:                                              ; preds = %99
  %101 = load i32, ptr %8, align 4, !tbaa !11
  %102 = add nsw i32 %101, 1
  store i32 %102, ptr %8, align 4, !tbaa !11
  br label %53, !llvm.loop !550

103:                                              ; preds = %97, %53
  %104 = load ptr, ptr %4, align 8, !tbaa !28
  call void @avtext_print_section_footer(ptr noundef %104)
  br label %105

105:                                              ; preds = %103, %50
  %106 = load ptr, ptr %4, align 8, !tbaa !28
  call void @avtext_print_section_footer(ptr noundef %106)
  %107 = load i32, ptr %9, align 4, !tbaa !11
  call void @llvm.lifetime.end.p0(i64 4, ptr %9) #14
  call void @llvm.lifetime.end.p0(i64 4, ptr %8) #14
  call void @llvm.lifetime.end.p0(i64 8, ptr %7) #14
  ret i32 %107
}

; Function Attrs: nounwind uwtable
define internal i32 @show_programs(ptr noundef %0, ptr noundef %1) #0 {
  %3 = alloca ptr, align 8
  %4 = alloca ptr, align 8
  %5 = alloca ptr, align 8
  %6 = alloca i32, align 4
  %7 = alloca i32, align 4
  %8 = alloca ptr, align 8
  %9 = alloca i32, align 4
  store ptr %0, ptr %3, align 8, !tbaa !28
  store ptr %1, ptr %4, align 8, !tbaa !158
  call void @llvm.lifetime.start.p0(i64 8, ptr %5) #14
  %10 = load ptr, ptr %4, align 8, !tbaa !158
  %11 = getelementptr inbounds nuw %struct.InputFile, ptr %10, i32 0, i32 0
  %12 = load ptr, ptr %11, align 8, !tbaa !83
  store ptr %12, ptr %5, align 8, !tbaa !160
  call void @llvm.lifetime.start.p0(i64 4, ptr %6) #14
  call void @llvm.lifetime.start.p0(i64 4, ptr %7) #14
  store i32 0, ptr %7, align 4, !tbaa !11
  %13 = load ptr, ptr %3, align 8, !tbaa !28
  call void @avtext_print_section_header(ptr noundef %13, ptr noundef null, i32 noundef 39)
  store i32 0, ptr %6, align 4, !tbaa !11
  br label %14

14:                                               ; preds = %43, %2
  %15 = load i32, ptr %6, align 4, !tbaa !11
  %16 = load ptr, ptr %5, align 8, !tbaa !160
  %17 = getelementptr inbounds nuw %struct.AVFormatContext, ptr %16, i32 0, i32 23
  %18 = load i32, ptr %17, align 4, !tbaa !187
  %19 = icmp ult i32 %15, %18
  br i1 %19, label %20, label %46

20:                                               ; preds = %14
  call void @llvm.lifetime.start.p0(i64 8, ptr %8) #14
  %21 = load ptr, ptr %5, align 8, !tbaa !160
  %22 = getelementptr inbounds nuw %struct.AVFormatContext, ptr %21, i32 0, i32 24
  %23 = load ptr, ptr %22, align 8, !tbaa !188
  %24 = load i32, ptr %6, align 4, !tbaa !11
  %25 = sext i32 %24 to i64
  %26 = getelementptr inbounds ptr, ptr %23, i64 %25
  %27 = load ptr, ptr %26, align 8, !tbaa !189
  store ptr %27, ptr %8, align 8, !tbaa !189
  %28 = load ptr, ptr %8, align 8, !tbaa !189
  %29 = icmp ne ptr %28, null
  br i1 %29, label %31, label %30

30:                                               ; preds = %20
  store i32 4, ptr %9, align 4
  br label %40

31:                                               ; preds = %20
  %32 = load ptr, ptr %3, align 8, !tbaa !28
  %33 = load ptr, ptr %4, align 8, !tbaa !158
  %34 = load ptr, ptr %8, align 8, !tbaa !189
  %35 = call i32 @show_program(ptr noundef %32, ptr noundef %33, ptr noundef %34)
  store i32 %35, ptr %7, align 4, !tbaa !11
  %36 = load i32, ptr %7, align 4, !tbaa !11
  %37 = icmp slt i32 %36, 0
  br i1 %37, label %38, label %39

38:                                               ; preds = %31
  store i32 2, ptr %9, align 4
  br label %40

39:                                               ; preds = %31
  store i32 0, ptr %9, align 4
  br label %40

40:                                               ; preds = %39, %38, %30
  call void @llvm.lifetime.end.p0(i64 8, ptr %8) #14
  %41 = load i32, ptr %9, align 4
  switch i32 %41, label %49 [
    i32 0, label %42
    i32 4, label %43
    i32 2, label %46
  ]

42:                                               ; preds = %40
  br label %43

43:                                               ; preds = %42, %40
  %44 = load i32, ptr %6, align 4, !tbaa !11
  %45 = add nsw i32 %44, 1
  store i32 %45, ptr %6, align 4, !tbaa !11
  br label %14, !llvm.loop !191

46:                                               ; preds = %40, %14
  %47 = load ptr, ptr %3, align 8, !tbaa !28
  call void @avtext_print_section_footer(ptr noundef %47)
  %48 = load i32, ptr %7, align 4, !tbaa !11
  store i32 1, ptr %9, align 4
  call void @llvm.lifetime.end.p0(i64 4, ptr %7) #14
  call void @llvm.lifetime.end.p0(i64 4, ptr %6) #14
  call void @llvm.lifetime.end.p0(i64 8, ptr %5) #14
  ret i32 %48

49:                                               ; preds = %40
  unreachable
}