; Function Attrs: nounwind uwtable
define internal fastcc i32 @show_programs(ptr noundef %0, ptr noundef nonnull readonly captures(none) %1) unnamed_addr #0 {
  %3 = load ptr, ptr %1, align 8, !tbaa !87
  tail call void @avtext_print_section_header(ptr noundef %0, ptr noundef null, i32 noundef 39) #20
  %4 = getelementptr inbounds nuw i8, ptr %3, i64 164
  %5 = load i32, ptr %4, align 4, !tbaa !161
  %.not30 = icmp eq i32 %5, 0
  br i1 %.not30, label %._crit_edge, label %.lr.ph

.lr.ph:                                           ; preds = %2
  %6 = getelementptr inbounds nuw i8, ptr %3, i64 168
  %7 = getelementptr inbounds nuw i8, ptr %1, i64 8
  br label %8

8:                                                ; preds = %.lr.ph, %.thread
  %9 = phi i32 [ %5, %.lr.ph ], [ %63, %.thread ]
  %indvars.iv = phi i64 [ 0, %.lr.ph ], [ %indvars.iv.next, %.thread ]
  %.01526 = phi i32 [ 0, %.lr.ph ], [ %.223, %.thread ]
  %10 = load ptr, ptr %6, align 8, !tbaa !162
  %11 = getelementptr inbounds nuw ptr, ptr %10, i64 %indvars.iv
  %12 = load ptr, ptr %11, align 8, !tbaa !163
  %.not = icmp eq ptr %12, null
  br i1 %.not, label %.thread, label %13

13:                                               ; preds = %8
  %14 = load ptr, ptr %1, align 8, !tbaa !87
  tail call void @avtext_print_section_header(ptr noundef %0, ptr noundef null, i32 noundef 34) #20
  %15 = load i32, ptr %12, align 8, !tbaa !165
  %16 = sext i32 %15 to i64
  tail call void @avtext_print_integer(ptr noundef %0, ptr noundef nonnull @.str.602, i64 noundef %16, i32 noundef 0) #20
  %17 = getelementptr inbounds nuw i8, ptr %12, i64 40
  %18 = load i32, ptr %17, align 8, !tbaa !167
  %19 = sext i32 %18 to i64
  tail call void @avtext_print_integer(ptr noundef %0, ptr noundef nonnull @.str.603, i64 noundef %19, i32 noundef 0) #20
  %20 = getelementptr inbounds nuw i8, ptr %12, i64 24
  %21 = load i32, ptr %20, align 8, !tbaa !168
  %22 = zext i32 %21 to i64
  tail call void @avtext_print_integer(ptr noundef %0, ptr noundef nonnull @.str.604, i64 noundef %22, i32 noundef 0) #20
  %23 = getelementptr inbounds nuw i8, ptr %12, i64 44
  %24 = load i32, ptr %23, align 4, !tbaa !169
  %25 = sext i32 %24 to i64
  tail call void @avtext_print_integer(ptr noundef %0, ptr noundef nonnull @.str.605, i64 noundef %25, i32 noundef 0) #20
  %26 = getelementptr inbounds nuw i8, ptr %12, i64 48
  %27 = load i32, ptr %26, align 8, !tbaa !170
  %28 = sext i32 %27 to i64
  tail call void @avtext_print_integer(ptr noundef %0, ptr noundef nonnull @.str.606, i64 noundef %28, i32 noundef 0) #20
  %.b.i = load i1, ptr @do_show_program_tags, align 4
  br i1 %.b.i, label %29, label %show_tags.exit.thread.i

29:                                               ; preds = %13
  %30 = getelementptr inbounds nuw i8, ptr %12, i64 32
  %31 = load ptr, ptr %30, align 8, !tbaa !171
  %.not.i.i = icmp eq ptr %31, null
  br i1 %.not.i.i, label %show_tags.exit.thread.i, label %32

32:                                               ; preds = %29
  tail call void @avtext_print_section_header(ptr noundef %0, ptr noundef null, i32 noundef 37) #20
  %33 = tail call ptr @av_dict_iterate(ptr noundef nonnull %31, ptr noundef null) #20
  %.not1617.i.i = icmp eq ptr %33, null
  br i1 %.not1617.i.i, label %show_tags.exit.thread37.i, label %.lr.ph.i.i

34:                                               ; preds = %.lr.ph.i.i
  %35 = tail call ptr @av_dict_iterate(ptr noundef nonnull %31, ptr noundef nonnull %36) #20
  %.not16.i.i = icmp eq ptr %35, null
  br i1 %.not16.i.i, label %show_tags.exit.thread37.i, label %.lr.ph.i.i, !llvm.loop !172

.lr.ph.i.i:                                       ; preds = %32, %34
  %36 = phi ptr [ %35, %34 ], [ %33, %32 ]
  %37 = load ptr, ptr %36, align 8, !tbaa !90
  %38 = getelementptr inbounds nuw i8, ptr %36, i64 8
  %39 = load ptr, ptr %38, align 8, !tbaa !173
  %40 = tail call i32 @avtext_print_string(ptr noundef %0, ptr noundef %37, ptr noundef %39, i32 noundef 2) #20
  %41 = icmp slt i32 %40, 0
  br i1 %41, label %.loopexit, label %34, !llvm.loop !172

show_tags.exit.thread37.i:                        ; preds = %34, %32
  %.1.i.ph.i = phi i32 [ 0, %32 ], [ %40, %34 ]
  tail call void @avtext_print_section_footer(ptr noundef %0) #20
  br label %show_tags.exit.thread.i

show_tags.exit.thread.i:                          ; preds = %show_tags.exit.thread37.i, %29, %13
  %.035.i = phi i32 [ %.1.i.ph.i, %show_tags.exit.thread37.i ], [ 0, %13 ], [ 0, %29 ]
  tail call void @avtext_print_section_header(ptr noundef %0, ptr noundef null, i32 noundef 35) #20
  %42 = load i32, ptr %20, align 8, !tbaa !168
  %.not44.i = icmp eq i32 %42, 0
  br i1 %.not44.i, label %.loopexit, label %.lr.ph.i

.lr.ph.i:                                         ; preds = %show_tags.exit.thread.i
  %43 = getelementptr inbounds nuw i8, ptr %12, i64 16
  %.pre47.i = load ptr, ptr @selected_streams, align 8, !tbaa !120
  br label %44

44:                                               ; preds = %58, %.lr.ph.i
  %45 = phi i32 [ %42, %.lr.ph.i ], [ %59, %58 ]
  %46 = phi ptr [ %.pre47.i, %.lr.ph.i ], [ %60, %58 ]
  %indvars.iv.i = phi i64 [ 0, %.lr.ph.i ], [ %indvars.iv.next.i, %58 ]
  %.241.i = phi i32 [ %.035.i, %.lr.ph.i ], [ %.4.i, %58 ]
  %47 = load ptr, ptr %43, align 8, !tbaa !174
  %48 = getelementptr inbounds nuw i32, ptr %47, i64 %indvars.iv.i
  %49 = load i32, ptr %48, align 4, !tbaa !11
  %50 = zext i32 %49 to i64
  %51 = getelementptr inbounds nuw i32, ptr %46, i64 %50
  %52 = load i32, ptr %51, align 4, !tbaa !11
  %.not.i = icmp eq i32 %52, 0
  br i1 %.not.i, label %58, label %53

53:                                               ; preds = %44
  %54 = load ptr, ptr %7, align 8, !tbaa !97
  %55 = getelementptr inbounds nuw %struct.InputStream, ptr %54, i64 %50
  %56 = tail call fastcc i32 @show_stream(ptr noundef %0, ptr noundef %14, i32 noundef %49, ptr noundef %55, i32 noundef 1)
  %57 = icmp slt i32 %56, 0
  br i1 %57, label %.loopexit, label %._crit_edge48.i

._crit_edge48.i:                                  ; preds = %53
  %.pre.i = load ptr, ptr @selected_streams, align 8, !tbaa !120
  %.pre49.i = load i32, ptr %20, align 8, !tbaa !168
  br label %58

58:                                               ; preds = %._crit_edge48.i, %44
  %59 = phi i32 [ %.pre49.i, %._crit_edge48.i ], [ %45, %44 ]
  %60 = phi ptr [ %.pre.i, %._crit_edge48.i ], [ %46, %44 ]
  %.4.i = phi i32 [ %56, %._crit_edge48.i ], [ %.241.i, %44 ]
  %indvars.iv.next.i = add nuw nsw i64 %indvars.iv.i, 1
  %61 = zext i32 %59 to i64
  %62 = icmp samesign ult i64 %indvars.iv.next.i, %61
  br i1 %62, label %44, label %.loopexit, !llvm.loop !175

.loopexit:                                        ; preds = %.lr.ph.i.i, %58, %53, %show_tags.exit.thread.i
  %.1.i = phi i32 [ %.035.i, %show_tags.exit.thread.i ], [ %.4.i, %58 ], [ %56, %53 ], [ %40, %.lr.ph.i.i ]
  tail call void @avtext_print_section_footer(ptr noundef %0) #20
  tail call void @avtext_print_section_footer(ptr noundef %0) #20
  %switch.not = icmp sgt i32 %.1.i, -1
  br i1 %switch.not, label %.loopexit..thread_crit_edge, label %._crit_edge

.loopexit..thread_crit_edge:                      ; preds = %.loopexit
  %.pre = load i32, ptr %4, align 4, !tbaa !161
  br label %.thread

.thread:                                          ; preds = %.loopexit..thread_crit_edge, %8
  %63 = phi i32 [ %.pre, %.loopexit..thread_crit_edge ], [ %9, %8 ]
  %.223 = phi i32 [ %.1.i, %.loopexit..thread_crit_edge ], [ %.01526, %8 ]
  %indvars.iv.next = add nuw nsw i64 %indvars.iv, 1
  %64 = zext i32 %63 to i64
  %65 = icmp samesign ult i64 %indvars.iv.next, %64
  br i1 %65, label %8, label %._crit_edge, !llvm.loop !176

._crit_edge:                                      ; preds = %.thread, %.loopexit, %2
  %.1 = phi i32 [ 0, %2 ], [ %.1.i, %.loopexit ], [ %.223, %.thread ]
  tail call void @avtext_print_section_footer(ptr noundef %0) #20
  ret i32 %.1
}